#include <math.h>
#include <stdio.h>
#include <stdlib.h>
#include <string.h>
#include <iostream>
using namespace std;

//*****************************
//????????????.cpp*
//?  ?????              *
//?  ??2010?10?22?      *
//*****************************
int main()
{
	int n,i,num[20000];                 //??????n?????
	cin>>n;                             //?????????n
	for(i=0;i<n;i++)
	{
		cin>>num[i];               //??????
		if (i>0)
		{
			for (int k=0;k<i;k++)
			{
				if(num[i]==num[k])
					num[i]=0;
			}                 //?????????????????????0
		}
	}
	cout<<num[0];                       //??????
	for(i=1;i<n;i++)
	{
		if(num[i]>9)
			cout<<" "<<num[i];
	}                                   //???????????0?????????????
	return 0;
}