; ModuleID = '13/39.cpp'
source_filename = "13/39.cpp"
target datalayout = "e-m:e-p270:32:32-p271:32:32-p272:64:64-i64:64-f80:128-n8:16:32:64-S128"
target triple = "x86_64-pc-linux-gnu"

%"class.std::ios_base::Init" = type { i8 }
%"class.std::basic_istream" = type { i32 (...)**, i64, %"class.std::basic_ios" }
%"class.std::basic_ios" = type { %"class.std::ios_base", %"class.std::basic_ostream"*, i8, i8, %"class.std::basic_streambuf"*, %"class.std::ctype"*, %"class.std::num_put"*, %"class.std::num_get"* }
%"class.std::ios_base" = type { i32 (...)**, i64, i64, i32, i32, i32, %"struct.std::ios_base::_Callback_list"*, %"struct.std::ios_base::_Words", [8 x %"struct.std::ios_base::_Words"], i32, %"struct.std::ios_base::_Words"*, %"class.std::locale" }
%"struct.std::ios_base::_Callback_list" = type { %"struct.std::ios_base::_Callback_list"*, void (i32, %"class.std::ios_base"*, i32)*, i32, i32 }
%"struct.std::ios_base::_Words" = type { i8*, i64 }
%"class.std::locale" = type { %"class.std::locale::_Impl"* }
%"class.std::locale::_Impl" = type { i32, %"class.std::locale::facet"**, i64, %"class.std::locale::facet"**, i8** }
%"class.std::locale::facet" = type <{ i32 (...)**, i32, [4 x i8] }>
%"class.std::basic_ostream" = type { i32 (...)**, %"class.std::basic_ios" }
%"class.std::basic_streambuf" = type { i32 (...)**, i8*, i8*, i8*, i8*, i8*, i8*, %"class.std::locale" }
%"class.std::ctype" = type <{ %"class.std::locale::facet.base", [4 x i8], %struct.__locale_struct*, i8, [7 x i8], i32*, i32*, i16*, i8, [256 x i8], [256 x i8], i8, [6 x i8] }>
%"class.std::locale::facet.base" = type <{ i32 (...)**, i32 }>
%struct.__locale_struct = type { [13 x %struct.__locale_data*], i16*, i32*, i32*, [13 x i8*] }
%struct.__locale_data = type opaque
%"class.std::num_put" = type { %"class.std::locale::facet.base", [4 x i8] }
%"class.std::num_get" = type { %"class.std::locale::facet.base", [4 x i8] }

@_ZStL8__ioinit = internal global %"class.std::ios_base::Init" zeroinitializer, align 1
@__dso_handle = external hidden global i8
@_ZSt3cin = external dso_local global %"class.std::basic_istream", align 8
@_ZSt4cout = external dso_local global %"class.std::basic_ostream", align 8
@.str = private unnamed_addr constant [2 x i8] c" \00", align 1
@llvm.global_ctors = appending global [1 x { i32, void ()*, i8* }] [{ i32, void ()*, i8* } { i32 65535, void ()* @_GLOBAL__sub_I_39.cpp, i8* null }]

; Function Attrs: noinline uwtable
define internal void @__cxx_global_var_init() #0 section ".text.startup" {
  call void @_ZNSt8ios_base4InitC1Ev(%"class.std::ios_base::Init"* @_ZStL8__ioinit)
  %1 = call i32 @__cxa_atexit(void (i8*)* bitcast (void (%"class.std::ios_base::Init"*)* @_ZNSt8ios_base4InitD1Ev to void (i8*)*), i8* getelementptr inbounds (%"class.std::ios_base::Init", %"class.std::ios_base::Init"* @_ZStL8__ioinit, i32 0, i32 0), i8* @__dso_handle) #3
  ret void
}

declare dso_local void @_ZNSt8ios_base4InitC1Ev(%"class.std::ios_base::Init"*) unnamed_addr #1

; Function Attrs: nounwind
declare dso_local void @_ZNSt8ios_base4InitD1Ev(%"class.std::ios_base::Init"*) unnamed_addr #2

; Function Attrs: nounwind
declare dso_local i32 @__cxa_atexit(void (i8*)*, i8*, i8*) #3

; Function Attrs: noinline norecurse uwtable
define dso_local i32 @main() #4 {
  %1 = alloca i32, align 4
  %2 = alloca i32, align 4
  %3 = alloca i32, align 4
  %4 = alloca [20000 x i32], align 16
  %5 = alloca i32, align 4
  store i32 0, i32* %1, align 4
  %6 = call dereferenceable(280) %"class.std::basic_istream"* @_ZNSirsERi(%"class.std::basic_istream"* @_ZSt3cin, i32* dereferenceable(4) %2)
  store i32 0, i32* %3, align 4
  br label %7

7:                                                ; preds = %43, %0
  %8 = load i32, i32* %3, align 4
  %9 = load i32, i32* %2, align 4
  %10 = icmp slt i32 %8, %9
  br i1 %10, label %11, label %46

11:                                               ; preds = %7
  %12 = load i32, i32* %3, align 4
  %13 = sext i32 %12 to i64
  %14 = getelementptr inbounds [20000 x i32], [20000 x i32]* %4, i64 0, i64 %13
  %15 = call dereferenceable(280) %"class.std::basic_istream"* @_ZNSirsERi(%"class.std::basic_istream"* @_ZSt3cin, i32* dereferenceable(4) %14)
  %16 = load i32, i32* %3, align 4
  %17 = icmp sgt i32 %16, 0
  br i1 %17, label %18, label %42

18:                                               ; preds = %11
  store i32 0, i32* %5, align 4
  br label %19

19:                                               ; preds = %38, %18
  %20 = load i32, i32* %5, align 4
  %21 = load i32, i32* %3, align 4
  %22 = icmp slt i32 %20, %21
  br i1 %22, label %23, label %41

23:                                               ; preds = %19
  %24 = load i32, i32* %3, align 4
  %25 = sext i32 %24 to i64
  %26 = getelementptr inbounds [20000 x i32], [20000 x i32]* %4, i64 0, i64 %25
  %27 = load i32, i32* %26, align 4
  %28 = load i32, i32* %5, align 4
  %29 = sext i32 %28 to i64
  %30 = getelementptr inbounds [20000 x i32], [20000 x i32]* %4, i64 0, i64 %29
  %31 = load i32, i32* %30, align 4
  %32 = icmp eq i32 %27, %31
  br i1 %32, label %33, label %37

33:                                               ; preds = %23
  %34 = load i32, i32* %3, align 4
  %35 = sext i32 %34 to i64
  %36 = getelementptr inbounds [20000 x i32], [20000 x i32]* %4, i64 0, i64 %35
  store i32 0, i32* %36, align 4
  br label %37

37:                                               ; preds = %33, %23
  br label %38

38:                                               ; preds = %37
  %39 = load i32, i32* %5, align 4
  %40 = add nsw i32 %39, 1
  store i32 %40, i32* %5, align 4
  br label %19

41:                                               ; preds = %19
  br label %42

42:                                               ; preds = %41, %11
  br label %43

43:                                               ; preds = %42
  %44 = load i32, i32* %3, align 4
  %45 = add nsw i32 %44, 1
  store i32 %45, i32* %3, align 4
  br label %7

46:                                               ; preds = %7
  %47 = getelementptr inbounds [20000 x i32], [20000 x i32]* %4, i64 0, i64 0
  %48 = load i32, i32* %47, align 16
  %49 = call dereferenceable(272) %"class.std::basic_ostream"* @_ZNSolsEi(%"class.std::basic_ostream"* @_ZSt4cout, i32 %48)
  store i32 1, i32* %3, align 4
  br label %50

50:                                               ; preds = %68, %46
  %51 = load i32, i32* %3, align 4
  %52 = load i32, i32* %2, align 4
  %53 = icmp slt i32 %51, %52
  br i1 %53, label %54, label %71

54:                                               ; preds = %50
  %55 = load i32, i32* %3, align 4
  %56 = sext i32 %55 to i64
  %57 = getelementptr inbounds [20000 x i32], [20000 x i32]* %4, i64 0, i64 %56
  %58 = load i32, i32* %57, align 4
  %59 = icmp sgt i32 %58, 9
  br i1 %59, label %60, label %67

60:                                               ; preds = %54
  %61 = call dereferenceable(272) %"class.std::basic_ostream"* @_ZStlsISt11char_traitsIcEERSt13basic_ostreamIcT_ES5_PKc(%"class.std::basic_ostream"* dereferenceable(272) @_ZSt4cout, i8* getelementptr inbounds ([2 x i8], [2 x i8]* @.str, i64 0, i64 0))
  %62 = load i32, i32* %3, align 4
  %63 = sext i32 %62 to i64
  %64 = getelementptr inbounds [20000 x i32], [20000 x i32]* %4, i64 0, i64 %63
  %65 = load i32, i32* %64, align 4
  %66 = call dereferenceable(272) %"class.std::basic_ostream"* @_ZNSolsEi(%"class.std::basic_ostream"* %61, i32 %65)
  br label %67

67:                                               ; preds = %60, %54
  br label %68

68:                                               ; preds = %67
  %69 = load i32, i32* %3, align 4
  %70 = add nsw i32 %69, 1
  store i32 %70, i32* %3, align 4
  br label %50

71:                                               ; preds = %50
  ret i32 0
}

declare dso_local dereferenceable(280) %"class.std::basic_istream"* @_ZNSirsERi(%"class.std::basic_istream"*, i32* dereferenceable(4)) #1

declare dso_local dereferenceable(272) %"class.std::basic_ostream"* @_ZNSolsEi(%"class.std::basic_ostream"*, i32) #1

declare dso_local dereferenceable(272) %"class.std::basic_ostream"* @_ZStlsISt11char_traitsIcEERSt13basic_ostreamIcT_ES5_PKc(%"class.std::basic_ostream"* dereferenceable(272), i8*) #1

; Function Attrs: noinline uwtable
define internal void @_GLOBAL__sub_I_39.cpp() #0 section ".text.startup" {
  call void @__cxx_global_var_init()
  ret void
}


!llvm.module.flags = !{!0}
!llvm.ident = !{!1}

!0 = !{i32 1, !"wchar_size", i32 4}
!1 = !{!"clang version 10.0.0-4ubuntu1 "}
